; ModuleID = '45/2495.c'
source_filename = "45/2495.c"
target datalayout = "e-m:e-p270:32:32-p271:32:32-p272:64:64-i64:64-f80:128-n8:16:32:64-S128"
target triple = "x86_64-pc-linux-gnu"

@.str = private unnamed_addr constant [6 x i8] c"%s %s\00", align 1
@.str.1 = private unnamed_addr constant [3 x i8] c"%d\00", align 1

; Function Attrs: noinline nounwind uwtable
define dso_local i32 @main() #0 {
  %1 = alloca i32, align 4
  %2 = alloca i32, align 4
  %3 = alloca i32, align 4
  %4 = alloca i32, align 4
  %5 = alloca i32, align 4
  %6 = alloca [50 x i8], align 16
  %7 = alloca [50 x i8], align 16
  store i32 0, i32* %1, align 4
  %8 = getelementptr inbounds [50 x i8], [50 x i8]* %6, i64 0, i64 0
  %9 = getelementptr inbounds [50 x i8], [50 x i8]* %7, i64 0, i64 0
  %10 = call i32 (i8*, ...) @__isoc99_scanf(i8* getelementptr inbounds ([6 x i8], [6 x i8]* @.str, i64 0, i64 0), i8* %8, i8* %9)
  store i32 0, i32* %3, align 4
  br label %11

11:                                               ; preds = %65, %0
  %12 = load i32, i32* %3, align 4
  %13 = sext i32 %12 to i64
  %14 = getelementptr inbounds [50 x i8], [50 x i8]* %7, i64 0, i64 0
  %15 = call i64 @strlen(i8* %14) #3
  %16 = getelementptr inbounds [50 x i8], [50 x i8]* %6, i64 0, i64 0
  %17 = call i64 @strlen(i8* %16) #3
  %18 = sub i64 %15, %17
  %19 = add i64 %18, 1
  %20 = icmp ult i64 %13, %19
  br i1 %20, label %21, label %68

21:                                               ; preds = %11
  store i32 1, i32* %5, align 4
  %22 = load i32, i32* %3, align 4
  %23 = sext i32 %22 to i64
  %24 = getelementptr inbounds [50 x i8], [50 x i8]* %7, i64 0, i64 %23
  %25 = load i8, i8* %24, align 1
  %26 = sext i8 %25 to i32
  %27 = getelementptr inbounds [50 x i8], [50 x i8]* %6, i64 0, i64 0
  %28 = load i8, i8* %27, align 16
  %29 = sext i8 %28 to i32
  %30 = icmp eq i32 %26, %29
  br i1 %30, label %31, label %64

31:                                               ; preds = %21
  store i32 0, i32* %2, align 4
  br label %32

32:                                               ; preds = %54, %31
  %33 = load i32, i32* %2, align 4
  %34 = sext i32 %33 to i64
  %35 = getelementptr inbounds [50 x i8], [50 x i8]* %6, i64 0, i64 0
  %36 = call i64 @strlen(i8* %35) #3
  %37 = icmp ult i64 %34, %36
  br i1 %37, label %38, label %57

38:                                               ; preds = %32
  %39 = load i32, i32* %3, align 4
  %40 = load i32, i32* %2, align 4
  %41 = add nsw i32 %39, %40
  %42 = sext i32 %41 to i64
  %43 = getelementptr inbounds [50 x i8], [50 x i8]* %7, i64 0, i64 %42
  %44 = load i8, i8* %43, align 1
  %45 = sext i8 %44 to i32
  %46 = load i32, i32* %2, align 4
  %47 = sext i32 %46 to i64
  %48 = getelementptr inbounds [50 x i8], [50 x i8]* %6, i64 0, i64 %47
  %49 = load i8, i8* %48, align 1
  %50 = sext i8 %49 to i32
  %51 = icmp ne i32 %45, %50
  br i1 %51, label %52, label %53

52:                                               ; preds = %38
  store i32 0, i32* %5, align 4
  br label %57

53:                                               ; preds = %38
  br label %54

54:                                               ; preds = %53
  %55 = load i32, i32* %2, align 4
  %56 = add nsw i32 %55, 1
  store i32 %56, i32* %2, align 4
  br label %32

57:                                               ; preds = %52, %32
  %58 = load i32, i32* %5, align 4
  %59 = icmp eq i32 %58, 1
  br i1 %59, label %60, label %63

60:                                               ; preds = %57
  %61 = load i32, i32* %3, align 4
  %62 = call i32 (i8*, ...) @printf(i8* getelementptr inbounds ([3 x i8], [3 x i8]* @.str.1, i64 0, i64 0), i32 %61)
  br label %68

63:                                               ; preds = %57
  br label %64

64:                                               ; preds = %63, %21
  br label %65

65:                                               ; preds = %64
  %66 = load i32, i32* %3, align 4
  %67 = add nsw i32 %66, 1
  store i32 %67, i32* %3, align 4
  br label %11

68:                                               ; preds = %60, %11
  ret i32 0
}

declare dso_local i32 @__isoc99_scanf(i8*, ...) #1

; Function Attrs: nounwind readonly
declare dso_local i64 @strlen(i8*) #2

declare dso_local i32 @printf(i8*, ...) #1


!llvm.module.flags = !{!0}
!llvm.ident = !{!1}

!0 = !{i32 1, !"wchar_size", i32 4}
!1 = !{!"clang version 10.0.0-4ubuntu1 "}
