; ModuleID = 'source-C-CXX/44/2495.c'
source_filename = "source-C-CXX/44/2495.c"
target datalayout = "e-m:e-p270:32:32-p271:32:32-p272:64:64-i64:64-f80:128-n8:16:32:64-S128"
target triple = "x86_64-pc-linux-gnu"

@.str = private unnamed_addr constant [6 x i8] c"%s %s\00", align 1
@.str.1 = private unnamed_addr constant [3 x i8] c"%d\00", align 1

; Function Attrs: nofree nounwind sspstrong uwtable
define dso_local i32 @main() local_unnamed_addr #0 {
  %1 = alloca [50 x i8], align 16
  %2 = alloca [50 x i8], align 16
  %3 = getelementptr inbounds [50 x i8], [50 x i8]* %1, i64 0, i64 0
  call void @llvm.lifetime.start.p0i8(i64 50, i8* nonnull %3) #4
  %4 = getelementptr inbounds [50 x i8], [50 x i8]* %2, i64 0, i64 0
  call void @llvm.lifetime.start.p0i8(i64 50, i8* nonnull %4) #4
  %5 = call i32 (i8*, ...) @__isoc99_scanf(i8* getelementptr inbounds ([6 x i8], [6 x i8]* @.str, i64 0, i64 0), i8* nonnull %3, i8* nonnull %4)
  %6 = call i64 @strlen(i8* noundef nonnull %4) #5
  %7 = call i64 @strlen(i8* noundef nonnull %3) #5
  %8 = add i64 %6, 1
  %9 = sub i64 %8, %7
  %10 = load i8, i8* %3, align 16
  %11 = icmp eq i64 %9, 0
  br i1 %11, label %45, label %12

12:                                               ; preds = %0
  %13 = icmp eq i64 %7, 0
  br i1 %13, label %33, label %14

14:                                               ; preds = %12, %30
  %15 = phi i64 [ %31, %30 ], [ 0, %12 ]
  %16 = getelementptr inbounds [50 x i8], [50 x i8]* %2, i64 0, i64 %15
  %17 = load i8, i8* %16, align 1, !tbaa !5
  %18 = icmp eq i8 %17, %10
  br i1 %18, label %21, label %30

19:                                               ; preds = %21
  %20 = icmp eq i64 %29, %7
  br i1 %20, label %38, label %21, !llvm.loop !8

21:                                               ; preds = %14, %19
  %22 = phi i64 [ %29, %19 ], [ 0, %14 ]
  %23 = add nuw nsw i64 %22, %15
  %24 = getelementptr inbounds [50 x i8], [50 x i8]* %2, i64 0, i64 %23
  %25 = load i8, i8* %24, align 1, !tbaa !5
  %26 = getelementptr inbounds [50 x i8], [50 x i8]* %1, i64 0, i64 %22
  %27 = load i8, i8* %26, align 1, !tbaa !5
  %28 = icmp eq i8 %25, %27
  %29 = add nuw i64 %22, 1
  br i1 %28, label %19, label %30

30:                                               ; preds = %21, %14
  %31 = add nuw i64 %15, 1
  %32 = icmp eq i64 %31, %9
  br i1 %32, label %45, label %14, !llvm.loop !10

33:                                               ; preds = %12, %42
  %34 = phi i64 [ %43, %42 ], [ 0, %12 ]
  %35 = getelementptr inbounds [50 x i8], [50 x i8]* %2, i64 0, i64 %34
  %36 = load i8, i8* %35, align 1, !tbaa !5
  %37 = icmp eq i8 %36, %10
  br i1 %37, label %38, label %42

38:                                               ; preds = %19, %33
  %39 = phi i64 [ %34, %33 ], [ %15, %19 ]
  %40 = trunc i64 %39 to i32
  %41 = call i32 (i8*, ...) @printf(i8* nonnull dereferenceable(1) getelementptr inbounds ([3 x i8], [3 x i8]* @.str.1, i64 0, i64 0), i32 %40)
  br label %45

42:                                               ; preds = %33
  %43 = add nuw i64 %34, 1
  %44 = icmp eq i64 %43, %9
  br i1 %44, label %45, label %33, !llvm.loop !10

45:                                               ; preds = %30, %42, %0, %38
  call void @llvm.lifetime.end.p0i8(i64 50, i8* nonnull %4) #4
  call void @llvm.lifetime.end.p0i8(i64 50, i8* nonnull %3) #4
  ret i32 0
}

; Function Attrs: argmemonly mustprogress nofree nosync nounwind willreturn
declare void @llvm.lifetime.start.p0i8(i64 immarg, i8* nocapture) #1

; Function Attrs: nofree nounwind
declare noundef i32 @__isoc99_scanf(i8* nocapture noundef readonly, ...) local_unnamed_addr #2

; Function Attrs: argmemonly mustprogress nofree nounwind readonly willreturn
declare i64 @strlen(i8* nocapture) local_unnamed_addr #3

; Function Attrs: nofree nounwind
declare noundef i32 @printf(i8* nocapture noundef readonly, ...) local_unnamed_addr #2

; Function Attrs: argmemonly mustprogress nofree nosync nounwind willreturn
declare void @llvm.lifetime.end.p0i8(i64 immarg, i8* nocapture) #1


!llvm.module.flags = !{!0, !1, !2, !3}
!llvm.ident = !{!4}

!0 = !{i32 1, !"wchar_size", i32 4}
!1 = !{i32 7, !"PIC Level", i32 2}
!2 = !{i32 7, !"PIE Level", i32 2}
!3 = !{i32 7, !"uwtable", i32 1}
!4 = !{!"clang version 13.0.0"}
!5 = !{!6, !6, i64 0}
!6 = !{!"omnipotent char", !7, i64 0}
!7 = !{!"Simple C/C++ TBAA"}
!8 = distinct !{!8, !9}
!9 = !{!"llvm.loop.mustprogress"}
!10 = distinct !{!10, !9}
